target datalayout = "e-m:e-p270:32:32-p271:32:32-p272:64:64-i64:64-i128:128-f80:128-n8:16:32:64-S128"
target triple = "x86_64-unknown-linux-gnu"

; Function Attrs: mustprogress nounwind uwtable
define linkonce_odr noundef ptr @_ZN6icu_758Collator13fromUCollatorEP9UCollator(ptr noundef %uc) #1 comdat align 2 {
entry:
  %uc.addr = alloca ptr, align 8
  store ptr %uc, ptr %uc.addr, align 8
  %0 = load ptr, ptr %uc.addr, align 8
  ret ptr %0
}

; Function Attrs: mustprogress nounwind uwtable
define internal noundef signext i8 @_ZL9U_FAILURE10UErrorCode(i32 noundef %code) #1 {
entry:
  %code.addr = alloca i32, align 4
  store i32 %code, ptr %code.addr, align 4
  %0 = load i32, ptr %code.addr, align 4
  %cmp = icmp sgt i32 %0, 0
  %conv = zext i1 %cmp to i8
  ret i8 %conv
}

; Function Attrs: mustprogress uwtable
define i32 @ucol_setVariableTop_75(ptr noundef %coll, ptr noundef %varTop, i32 noundef %len, ptr noundef %status) #0 {
entry:
  %retval = alloca i32, align 4
  %coll.addr = alloca ptr, align 8
  %varTop.addr = alloca ptr, align 8
  %len.addr = alloca i32, align 4
  %status.addr = alloca ptr, align 8
  store ptr %coll, ptr %coll.addr, align 8
  store ptr %varTop, ptr %varTop.addr, align 8
  store i32 %len, ptr %len.addr, align 4
  store ptr %status, ptr %status.addr, align 8
  %0 = load ptr, ptr %status.addr, align 8
  %1 = load i32, ptr %0, align 4
  %call = call noundef signext i8 @_ZL9U_FAILURE10UErrorCode(i32 noundef %1)
  %tobool = icmp ne i8 %call, 0
  br i1 %tobool, label %if.then, label %lor.lhs.false

lor.lhs.false:                                    ; preds = %entry
  %2 = load ptr, ptr %coll.addr, align 8
  %cmp = icmp eq ptr %2, null
  br i1 %cmp, label %if.then, label %if.end

if.then:                                          ; preds = %lor.lhs.false, %entry
  store i32 0, ptr %retval, align 4
  br label %return

if.end:                                           ; preds = %lor.lhs.false
  %3 = load ptr, ptr %coll.addr, align 8
  %call1 = call noundef ptr @_ZN6icu_758Collator13fromUCollatorEP9UCollator(ptr noundef %3)
  %4 = load ptr, ptr %varTop.addr, align 8
  %5 = load i32, ptr %len.addr, align 4
  %6 = load ptr, ptr %status.addr, align 8
  %vtable = load ptr, ptr %call1, align 8
  %vfn = getelementptr inbounds ptr, ptr %vtable, i64 27
  %7 = load ptr, ptr %vfn, align 8
  %call2 = call noundef i32 %7(ptr noundef nonnull align 8 dereferenceable(8) %call1, ptr noundef %4, i32 noundef %5, ptr noundef nonnull align 4 dereferenceable(4) %6)
  store i32 %call2, ptr %retval, align 4
  br label %return

return:                                           ; preds = %if.end, %if.then
  %8 = load i32, ptr %retval, align 4
  ret i32 %8
}